target datalayout = "e-m:e-p270:32:32-p271:32:32-p272:64:64-i64:64-i128:128-f80:128-n8:16:32:64-S128"
target triple = "x86_64-pc-linux-gnu"

%struct.pmix_class_t = type { ptr, ptr, ptr, ptr, i32, i32, ptr, ptr, i64 }
%struct.pmix_list_t = type { %struct.pmix_object_t, %struct.pmix_list_item_t, i64 }
%struct.pmix_object_t = type { %union.pthread_mutex_t, ptr, i32, %struct.pmix_tma }
%union.pthread_mutex_t = type { %struct.__pthread_mutex_s }
%struct.__pthread_mutex_s = type { i32, i32, i32, i32, i32, i16, i16, %struct.__pthread_internal_list }
%struct.__pthread_internal_list = type { ptr, ptr }
%struct.pmix_tma = type { ptr, ptr, ptr, ptr, ptr, ptr, ptr, ptr }
%struct.pmix_list_item_t = type { %struct.pmix_object_t, ptr, ptr, i32 }

@.str.4 = private unnamed_addr constant [21 x i8] c"pthread_mutex_lock()\00", align 1

; Function Attrs: inlinehint nounwind uwtable
define internal void @pmix_tma_free(ptr noundef %0, ptr noundef %1) #8 {
  %3 = alloca ptr, align 8
  %4 = alloca ptr, align 8
  store ptr %0, ptr %3, align 8, !tbaa !66
  store ptr %1, ptr %4, align 8, !tbaa !8
  %5 = load ptr, ptr %3, align 8, !tbaa !66
  %6 = icmp ne ptr null, %5
  br i1 %6, label %7, label %13

7:                                                ; preds = %2
  %8 = load ptr, ptr %3, align 8, !tbaa !66
  %9 = getelementptr inbounds nuw %struct.pmix_tma, ptr %8, i32 0, i32 5
  %10 = load ptr, ptr %9, align 8, !tbaa !143
  %11 = load ptr, ptr %3, align 8, !tbaa !66
  %12 = load ptr, ptr %4, align 8, !tbaa !8
  call void %10(ptr noundef %11, ptr noundef %12)
  br label %15

13:                                               ; preds = %2
  %14 = load ptr, ptr %4, align 8, !tbaa !8
  call void @free(ptr noundef %14) #15
  br label %15

15:                                               ; preds = %13, %7
  ret void
}

; Function Attrs: inlinehint nounwind uwtable
define internal void @pmix_obj_run_destructors(ptr noundef %0) #8 {
  %2 = alloca ptr, align 8
  %3 = alloca ptr, align 8
  store ptr %0, ptr %2, align 8, !tbaa !119
  call void @llvm.lifetime.start.p0(i64 8, ptr %3) #15
  %4 = load ptr, ptr %2, align 8, !tbaa !119
  %5 = getelementptr inbounds nuw %struct.pmix_object_t, ptr %4, i32 0, i32 1
  %6 = load ptr, ptr %5, align 8, !tbaa !122
  %7 = getelementptr inbounds nuw %struct.pmix_class_t, ptr %6, i32 0, i32 7
  %8 = load ptr, ptr %7, align 8, !tbaa !141
  store ptr %8, ptr %3, align 8, !tbaa !8
  br label %9

9:                                                ; preds = %13, %1
  %10 = load ptr, ptr %3, align 8, !tbaa !8
  %11 = load ptr, ptr %10, align 8, !tbaa !8
  %12 = icmp ne ptr null, %11
  br i1 %12, label %13, label %19

13:                                               ; preds = %9
  %14 = load ptr, ptr %3, align 8, !tbaa !8
  %15 = load ptr, ptr %14, align 8, !tbaa !8
  %16 = load ptr, ptr %2, align 8, !tbaa !119
  call void %15(ptr noundef %16)
  %17 = load ptr, ptr %3, align 8, !tbaa !8
  %18 = getelementptr inbounds nuw ptr, ptr %17, i32 1
  store ptr %18, ptr %3, align 8, !tbaa !8
  br label %9, !llvm.loop !142

19:                                               ; preds = %9
  call void @llvm.lifetime.end.p0(i64 8, ptr %3) #15
  ret void
}

; Function Attrs: alwaysinline nounwind uwtable
define internal i32 @pmix_obj_update(ptr noundef %0, i32 noundef %1) #9 {
  %3 = alloca ptr, align 8
  %4 = alloca i32, align 4
  %5 = alloca i32, align 4
  store ptr %0, ptr %3, align 8, !tbaa !119
  store i32 %1, ptr %4, align 4, !tbaa !31
  call void @llvm.lifetime.start.p0(i64 4, ptr %5) #15
  %6 = load ptr, ptr %3, align 8, !tbaa !119
  %7 = getelementptr inbounds nuw %struct.pmix_object_t, ptr %6, i32 0, i32 0
  %8 = call i32 @pthread_mutex_lock(ptr noundef %7) #15
  store i32 %8, ptr %5, align 4, !tbaa !31
  %9 = load i32, ptr %5, align 4, !tbaa !31
  %10 = icmp eq i32 %9, 35
  br i1 %10, label %11, label %14

11:                                               ; preds = %2
  %12 = load i32, ptr %5, align 4, !tbaa !31
  %13 = call ptr @__errno_location() #18
  store i32 %12, ptr %13, align 4, !tbaa !31
  call void @perror(ptr noundef @.str.4)
  call void @abort() #19
  unreachable

14:                                               ; preds = %2
  %15 = load i32, ptr %4, align 4, !tbaa !31
  %16 = load ptr, ptr %3, align 8, !tbaa !119
  %17 = getelementptr inbounds nuw %struct.pmix_object_t, ptr %16, i32 0, i32 2
  %18 = load i32, ptr %17, align 8, !tbaa !123
  %19 = add nsw i32 %18, %15
  store i32 %19, ptr %17, align 8, !tbaa !123
  store i32 %19, ptr %5, align 4, !tbaa !31
  %20 = load ptr, ptr %3, align 8, !tbaa !119
  %21 = getelementptr inbounds nuw %struct.pmix_object_t, ptr %20, i32 0, i32 0
  %22 = call i32 @pthread_mutex_unlock(ptr noundef %21) #15
  %23 = load i32, ptr %5, align 4, !tbaa !31
  call void @llvm.lifetime.end.p0(i64 4, ptr %5) #15
  ret i32 %23
}

; Function Attrs: inlinehint nounwind uwtable
define internal ptr @pmix_list_remove_first(ptr noundef %0) #8 {
  %2 = alloca ptr, align 8
  %3 = alloca ptr, align 8
  %4 = alloca ptr, align 8
  %5 = alloca i32, align 4
  store ptr %0, ptr %3, align 8, !tbaa !114
  call void @llvm.lifetime.start.p0(i64 8, ptr %4) #15
  %6 = load ptr, ptr %3, align 8, !tbaa !114
  %7 = getelementptr inbounds nuw %struct.pmix_list_t, ptr %6, i32 0, i32 2
  %8 = load volatile i64, ptr %7, align 8, !tbaa !135
  %9 = icmp eq i64 0, %8
  br i1 %9, label %10, label %11

10:                                               ; preds = %1
  store ptr null, ptr %2, align 8
  store i32 1, ptr %5, align 4
  br label %34

11:                                               ; preds = %1
  %12 = load ptr, ptr %3, align 8, !tbaa !114
  %13 = getelementptr inbounds nuw %struct.pmix_list_t, ptr %12, i32 0, i32 2
  %14 = load volatile i64, ptr %13, align 8, !tbaa !135
  %15 = add i64 %14, -1
  store volatile i64 %15, ptr %13, align 8, !tbaa !135
  %16 = load ptr, ptr %3, align 8, !tbaa !114
  %17 = getelementptr inbounds nuw %struct.pmix_list_t, ptr %16, i32 0, i32 1
  %18 = getelementptr inbounds nuw %struct.pmix_list_item_t, ptr %17, i32 0, i32 1
  %19 = load ptr, ptr %18, align 8, !tbaa !138
  store ptr %19, ptr %4, align 8, !tbaa !132
  %20 = load ptr, ptr %4, align 8, !tbaa !132
  %21 = getelementptr inbounds nuw %struct.pmix_list_item_t, ptr %20, i32 0, i32 2
  %22 = load volatile ptr, ptr %21, align 8, !tbaa !133
  %23 = load ptr, ptr %4, align 8, !tbaa !132
  %24 = getelementptr inbounds nuw %struct.pmix_list_item_t, ptr %23, i32 0, i32 1
  %25 = load volatile ptr, ptr %24, align 8, !tbaa !134
  %26 = getelementptr inbounds nuw %struct.pmix_list_item_t, ptr %25, i32 0, i32 2
  store volatile ptr %22, ptr %26, align 8, !tbaa !133
  %27 = load ptr, ptr %4, align 8, !tbaa !132
  %28 = getelementptr inbounds nuw %struct.pmix_list_item_t, ptr %27, i32 0, i32 1
  %29 = load volatile ptr, ptr %28, align 8, !tbaa !134
  %30 = load ptr, ptr %3, align 8, !tbaa !114
  %31 = getelementptr inbounds nuw %struct.pmix_list_t, ptr %30, i32 0, i32 1
  %32 = getelementptr inbounds nuw %struct.pmix_list_item_t, ptr %31, i32 0, i32 1
  store ptr %29, ptr %32, align 8, !tbaa !138
  %33 = load ptr, ptr %4, align 8, !tbaa !132
  store ptr %33, ptr %2, align 8
  store i32 1, ptr %5, align 4
  br label %34

34:                                               ; preds = %11, %10
  call void @llvm.lifetime.end.p0(i64 8, ptr %4) #15
  %35 = load ptr, ptr %2, align 8
  ret ptr %35
}

; Function Attrs: nounwind uwtable
define void @PMIx_Info_list_release(ptr noundef %0) #0 {
  %2 = alloca ptr, align 8
  %3 = alloca ptr, align 8
  %4 = alloca ptr, align 8
  %5 = alloca ptr, align 8
  %6 = alloca ptr, align 8
  store ptr %0, ptr %2, align 8, !tbaa !8
  call void @llvm.lifetime.start.p0(i64 8, ptr %3) #15
  %7 = load ptr, ptr %2, align 8, !tbaa !8
  store ptr %7, ptr %3, align 8, !tbaa !114
  br label %8

8:                                                ; preds = %1
  call void @llvm.lifetime.start.p0(i64 8, ptr %4) #15
  br label %9

9:                                                ; preds = %35, %8
  %10 = load ptr, ptr %3, align 8, !tbaa !114
  %11 = call ptr @pmix_list_remove_first(ptr noundef %10)
  store ptr %11, ptr %4, align 8, !tbaa !132
  %12 = icmp ne ptr null, %11
  br i1 %12, label %13, label %36

13:                                               ; preds = %9
  br label %14

14:                                               ; preds = %13
  call void @llvm.lifetime.start.p0(i64 8, ptr %5) #15
  %15 = load ptr, ptr %4, align 8, !tbaa !132
  store ptr %15, ptr %5, align 8, !tbaa !119
  %16 = load ptr, ptr %5, align 8, !tbaa !119
  %17 = call i32 @pmix_obj_update(ptr noundef %16, i32 noundef -1)
  %18 = icmp eq i32 0, %17
  br i1 %18, label %19, label %33

19:                                               ; preds = %14
  %20 = load ptr, ptr %5, align 8, !tbaa !119
  call void @pmix_obj_run_destructors(ptr noundef %20)
  %21 = load ptr, ptr %5, align 8, !tbaa !119
  %22 = getelementptr inbounds nuw %struct.pmix_object_t, ptr %21, i32 0, i32 3
  %23 = getelementptr inbounds nuw %struct.pmix_tma, ptr %22, i32 0, i32 5
  %24 = load ptr, ptr %23, align 8, !tbaa !128
  %25 = icmp ne ptr null, %24
  br i1 %25, label %26, label %30

26:                                               ; preds = %19
  %27 = load ptr, ptr %5, align 8, !tbaa !119
  %28 = getelementptr inbounds nuw %struct.pmix_object_t, ptr %27, i32 0, i32 3
  %29 = load ptr, ptr %4, align 8, !tbaa !132
  call void @pmix_tma_free(ptr noundef %28, ptr noundef %29)
  br label %32

30:                                               ; preds = %19
  %31 = load ptr, ptr %4, align 8, !tbaa !132
  call void @free(ptr noundef %31) #15
  br label %32

32:                                               ; preds = %30, %26
  store ptr null, ptr %4, align 8, !tbaa !132
  br label %33

33:                                               ; preds = %32, %14
  call void @llvm.lifetime.end.p0(i64 8, ptr %5) #15
  br label %34

34:                                               ; preds = %33
  br label %35

35:                                               ; preds = %34
  br label %9, !llvm.loop !140

36:                                               ; preds = %9
  br label %37

37:                                               ; preds = %36
  call void @llvm.lifetime.start.p0(i64 8, ptr %6) #15
  %38 = load ptr, ptr %3, align 8, !tbaa !114
  store ptr %38, ptr %6, align 8, !tbaa !119
  %39 = load ptr, ptr %6, align 8, !tbaa !119
  %40 = call i32 @pmix_obj_update(ptr noundef %39, i32 noundef -1)
  %41 = icmp eq i32 0, %40
  br i1 %41, label %42, label %56

42:                                               ; preds = %37
  %43 = load ptr, ptr %6, align 8, !tbaa !119
  call void @pmix_obj_run_destructors(ptr noundef %43)
  %44 = load ptr, ptr %6, align 8, !tbaa !119
  %45 = getelementptr inbounds nuw %struct.pmix_object_t, ptr %44, i32 0, i32 3
  %46 = getelementptr inbounds nuw %struct.pmix_tma, ptr %45, i32 0, i32 5
  %47 = load ptr, ptr %46, align 8, !tbaa !128
  %48 = icmp ne ptr null, %47
  br i1 %48, label %49, label %53

49:                                               ; preds = %42
  %50 = load ptr, ptr %6, align 8, !tbaa !119
  %51 = getelementptr inbounds nuw %struct.pmix_object_t, ptr %50, i32 0, i32 3
  %52 = load ptr, ptr %3, align 8, !tbaa !114
  call void @pmix_tma_free(ptr noundef %51, ptr noundef %52)
  br label %55

53:                                               ; preds = %42
  %54 = load ptr, ptr %3, align 8, !tbaa !114
  call void @free(ptr noundef %54) #15
  br label %55

55:                                               ; preds = %53, %49
  store ptr null, ptr %3, align 8, !tbaa !114
  br label %56

56:                                               ; preds = %55, %37
  call void @llvm.lifetime.end.p0(i64 8, ptr %6) #15
  br label %57

57:                                               ; preds = %56
  br label %58

58:                                               ; preds = %57
  call void @llvm.lifetime.end.p0(i64 8, ptr %4) #15
  br label %59

59:                                               ; preds = %58
  br label %60

60:                                               ; preds = %59
  call void @llvm.lifetime.end.p0(i64 8, ptr %3) #15
  ret void
}