; Function Attrs: nounwind uwtable
define void @PMIx_Info_list_release(ptr noundef %0) local_unnamed_addr #0 {
  %2 = getelementptr inbounds nuw i8, ptr %0, i64 264
  %3 = load volatile i64, ptr %2, align 8, !tbaa !149
  %4 = icmp eq i64 %3, 0
  br i1 %4, label %._crit_edge, label %.lr.ph

.lr.ph:                                           ; preds = %1
  %5 = getelementptr inbounds nuw i8, ptr %0, i64 240
  br label %6

6:                                                ; preds = %.lr.ph, %39
  %7 = load volatile i64, ptr %2, align 8, !tbaa !149
  %8 = add i64 %7, -1
  store volatile i64 %8, ptr %2, align 8, !tbaa !149
  %9 = load ptr, ptr %5, align 8, !tbaa !151
  %10 = getelementptr inbounds nuw i8, ptr %9, i64 128
  %11 = load volatile ptr, ptr %10, align 8, !tbaa !147
  %12 = getelementptr inbounds nuw i8, ptr %9, i64 120
  %13 = load volatile ptr, ptr %12, align 8, !tbaa !148
  %14 = getelementptr inbounds nuw i8, ptr %13, i64 128
  store volatile ptr %11, ptr %14, align 8, !tbaa !147
  %15 = load volatile ptr, ptr %12, align 8, !tbaa !148
  store ptr %15, ptr %5, align 8, !tbaa !151
  %16 = tail call i32 @pthread_mutex_lock(ptr noundef nonnull %9) #24
  %17 = icmp eq i32 %16, 35
  br i1 %17, label %18, label %pmix_obj_update.exit

18:                                               ; preds = %6
  %19 = tail call ptr @__errno_location() #28
  store i32 35, ptr %19, align 4, !tbaa !139
  tail call void @perror(ptr noundef nonnull @.str.4) #29
  tail call void @abort() #30
  unreachable

pmix_obj_update.exit:                             ; preds = %6
  %20 = getelementptr inbounds nuw i8, ptr %9, i64 48
  %21 = load i32, ptr %20, align 8, !tbaa !144
  %22 = add nsw i32 %21, -1
  store i32 %22, ptr %20, align 8, !tbaa !144
  %23 = tail call i32 @pthread_mutex_unlock(ptr noundef nonnull %9) #24
  %24 = icmp eq i32 %22, 0
  br i1 %24, label %25, label %39

25:                                               ; preds = %pmix_obj_update.exit
  %26 = getelementptr inbounds nuw i8, ptr %9, i64 40
  %27 = load ptr, ptr %26, align 8, !tbaa !46
  %28 = getelementptr inbounds nuw i8, ptr %27, i64 48
  %29 = load ptr, ptr %28, align 8, !tbaa !50
  %30 = load ptr, ptr %29, align 8, !tbaa !26
  %.not6.i = icmp eq ptr %30, null
  br i1 %.not6.i, label %pmix_obj_run_destructors.exit, label %.lr.ph.i

.lr.ph.i:                                         ; preds = %25, %.lr.ph.i
  %31 = phi ptr [ %33, %.lr.ph.i ], [ %30, %25 ]
  %.07.i = phi ptr [ %32, %.lr.ph.i ], [ %29, %25 ]
  tail call void %31(ptr noundef nonnull %9) #24
  %32 = getelementptr inbounds nuw i8, ptr %.07.i, i64 8
  %33 = load ptr, ptr %32, align 8, !tbaa !26
  %.not.i = icmp eq ptr %33, null
  br i1 %.not.i, label %pmix_obj_run_destructors.exit, label %.lr.ph.i, !llvm.loop !52

pmix_obj_run_destructors.exit:                    ; preds = %.lr.ph.i, %25
  %34 = getelementptr inbounds nuw i8, ptr %9, i64 96
  %35 = load ptr, ptr %34, align 8, !tbaa !152
  %.not17 = icmp eq ptr %35, null
  br i1 %.not17, label %38, label %36

36:                                               ; preds = %pmix_obj_run_destructors.exit
  %37 = getelementptr inbounds nuw i8, ptr %9, i64 56
  tail call void %35(ptr noundef nonnull %37, ptr noundef nonnull %9) #24
  br label %39

38:                                               ; preds = %pmix_obj_run_destructors.exit
  tail call void @free(ptr noundef nonnull %9) #24
  br label %39

39:                                               ; preds = %36, %38, %pmix_obj_update.exit
  %40 = load volatile i64, ptr %2, align 8, !tbaa !149
  %41 = icmp eq i64 %40, 0
  br i1 %41, label %._crit_edge, label %6, !llvm.loop !153

._crit_edge:                                      ; preds = %39, %1
  %42 = tail call i32 @pthread_mutex_lock(ptr noundef nonnull %0) #24
  %43 = icmp eq i32 %42, 35
  br i1 %43, label %44, label %pmix_obj_update.exit18

44:                                               ; preds = %._crit_edge
  %45 = tail call ptr @__errno_location() #28
  store i32 35, ptr %45, align 4, !tbaa !139
  tail call void @perror(ptr noundef nonnull @.str.4) #29
  tail call void @abort() #30
  unreachable

pmix_obj_update.exit18:                           ; preds = %._crit_edge
  %46 = getelementptr inbounds nuw i8, ptr %0, i64 48
  %47 = load i32, ptr %46, align 8, !tbaa !144
  %48 = add nsw i32 %47, -1
  store i32 %48, ptr %46, align 8, !tbaa !144
  %49 = tail call i32 @pthread_mutex_unlock(ptr noundef nonnull %0) #24
  %50 = icmp eq i32 %48, 0
  br i1 %50, label %51, label %65

51:                                               ; preds = %pmix_obj_update.exit18
  %52 = getelementptr inbounds nuw i8, ptr %0, i64 40
  %53 = load ptr, ptr %52, align 8, !tbaa !46
  %54 = getelementptr inbounds nuw i8, ptr %53, i64 48
  %55 = load ptr, ptr %54, align 8, !tbaa !50
  %56 = load ptr, ptr %55, align 8, !tbaa !26
  %.not6.i20 = icmp eq ptr %56, null
  br i1 %.not6.i20, label %pmix_obj_run_destructors.exit24, label %.lr.ph.i21

.lr.ph.i21:                                       ; preds = %51, %.lr.ph.i21
  %57 = phi ptr [ %59, %.lr.ph.i21 ], [ %56, %51 ]
  %.07.i22 = phi ptr [ %58, %.lr.ph.i21 ], [ %55, %51 ]
  tail call void %57(ptr noundef nonnull %0) #24
  %58 = getelementptr inbounds nuw i8, ptr %.07.i22, i64 8
  %59 = load ptr, ptr %58, align 8, !tbaa !26
  %.not.i23 = icmp eq ptr %59, null
  br i1 %.not.i23, label %pmix_obj_run_destructors.exit24, label %.lr.ph.i21, !llvm.loop !52

pmix_obj_run_destructors.exit24:                  ; preds = %.lr.ph.i21, %51
  %60 = getelementptr inbounds nuw i8, ptr %0, i64 96
  %61 = load ptr, ptr %60, align 8, !tbaa !152
  %.not16 = icmp eq ptr %61, null
  br i1 %.not16, label %64, label %62

62:                                               ; preds = %pmix_obj_run_destructors.exit24
  %63 = getelementptr inbounds nuw i8, ptr %0, i64 56
  tail call void %61(ptr noundef nonnull %63, ptr noundef nonnull %0) #24
  br label %65

64:                                               ; preds = %pmix_obj_run_destructors.exit24
  tail call void @free(ptr noundef nonnull %0) #24
  br label %65

65:                                               ; preds = %62, %64, %pmix_obj_update.exit18
  ret void
}